target datalayout = "e-m:e-p270:32:32-p271:32:32-p272:64:64-i64:64-i128:128-f80:128-n8:16:32:64-S128"
target triple = "x86_64-pc-linux-gnu"

%struct.pem_password_cb_data = type { ptr, i32 }

@ui_method_data_index = internal global i32 -1, align 4

; Function Attrs: nounwind uwtable
define internal i32 @ui_read(ptr noundef %0, ptr noundef %1) #0 {
  %3 = alloca i32, align 4
  %4 = alloca ptr, align 8
  %5 = alloca ptr, align 8
  %6 = alloca i32, align 4
  %7 = alloca [1025 x i8], align 16
  %8 = alloca ptr, align 8
  %9 = alloca i32, align 4
  %10 = alloca i32, align 4
  store ptr %0, ptr %4, align 8, !tbaa !10
  store ptr %1, ptr %5, align 8, !tbaa !20
  %11 = load ptr, ptr %5, align 8, !tbaa !20
  %12 = call i32 @UI_get_string_type(ptr noundef %11)
  switch i32 %12, label %62 [
    i32 1, label %13
    i32 2, label %61
    i32 0, label %61
    i32 3, label %61
    i32 4, label %61
    i32 5, label %61
  ]

13:                                               ; preds = %2
  call void @llvm.lifetime.start.p0(i64 4, ptr %6) #3
  call void @llvm.lifetime.start.p0(i64 1025, ptr %7) #3
  call void @llvm.lifetime.start.p0(i64 8, ptr %8) #3
  %14 = load ptr, ptr %4, align 8, !tbaa !10
  %15 = call ptr @UI_get_method(ptr noundef %14)
  %16 = load i32, ptr @ui_method_data_index, align 4, !tbaa !8
  %17 = call ptr @UI_method_get_ex_data(ptr noundef %15, i32 noundef %16)
  store ptr %17, ptr %8, align 8, !tbaa !13
  call void @llvm.lifetime.start.p0(i64 4, ptr %9) #3
  %18 = load ptr, ptr %5, align 8, !tbaa !20
  %19 = call i32 @UI_get_result_maxsize(ptr noundef %18)
  store i32 %19, ptr %9, align 4, !tbaa !8
  %20 = load i32, ptr %9, align 4, !tbaa !8
  %21 = icmp sgt i32 %20, 1024
  br i1 %21, label %22, label %23

22:                                               ; preds = %13
  store i32 1024, ptr %9, align 4, !tbaa !8
  br label %23

23:                                               ; preds = %22, %13
  %24 = load ptr, ptr %8, align 8, !tbaa !13
  %25 = getelementptr inbounds nuw %struct.pem_password_cb_data, ptr %24, i32 0, i32 0
  %26 = load ptr, ptr %25, align 8, !tbaa !19
  %27 = getelementptr inbounds [1025 x i8], ptr %7, i64 0, i64 0
  %28 = load i32, ptr %9, align 4, !tbaa !8
  %29 = load ptr, ptr %8, align 8, !tbaa !13
  %30 = getelementptr inbounds nuw %struct.pem_password_cb_data, ptr %29, i32 0, i32 1
  %31 = load i32, ptr %30, align 8, !tbaa !17
  %32 = load ptr, ptr %4, align 8, !tbaa !10
  %33 = call ptr @UI_get0_user_data(ptr noundef %32)
  %34 = call i32 %26(ptr noundef %27, i32 noundef %28, i32 noundef %31, ptr noundef %33)
  store i32 %34, ptr %6, align 4, !tbaa !8
  %35 = load i32, ptr %6, align 4, !tbaa !8
  %36 = load i32, ptr %9, align 4, !tbaa !8
  %37 = icmp sgt i32 %35, %36
  br i1 %37, label %38, label %39

38:                                               ; preds = %23
  store i32 -1, ptr %3, align 4
  store i32 1, ptr %10, align 4
  br label %60

39:                                               ; preds = %23
  %40 = load i32, ptr %6, align 4, !tbaa !8
  %41 = icmp sge i32 %40, 0
  br i1 %41, label %42, label %46

42:                                               ; preds = %39
  %43 = load i32, ptr %6, align 4, !tbaa !8
  %44 = sext i32 %43 to i64
  %45 = getelementptr inbounds [1025 x i8], ptr %7, i64 0, i64 %44
  store i8 0, ptr %45, align 1, !tbaa !22
  br label %46

46:                                               ; preds = %42, %39
  %47 = load i32, ptr %6, align 4, !tbaa !8
  %48 = icmp slt i32 %47, 0
  br i1 %48, label %49, label %51

49:                                               ; preds = %46
  %50 = load i32, ptr %6, align 4, !tbaa !8
  store i32 %50, ptr %3, align 4
  store i32 1, ptr %10, align 4
  br label %60

51:                                               ; preds = %46
  %52 = load ptr, ptr %4, align 8, !tbaa !10
  %53 = load ptr, ptr %5, align 8, !tbaa !20
  %54 = getelementptr inbounds [1025 x i8], ptr %7, i64 0, i64 0
  %55 = load i32, ptr %6, align 4, !tbaa !8
  %56 = call i32 @UI_set_result_ex(ptr noundef %52, ptr noundef %53, ptr noundef %54, i32 noundef %55)
  %57 = icmp sge i32 %56, 0
  br i1 %57, label %58, label %59

58:                                               ; preds = %51
  store i32 1, ptr %3, align 4
  store i32 1, ptr %10, align 4
  br label %60

59:                                               ; preds = %51
  store i32 0, ptr %3, align 4
  store i32 1, ptr %10, align 4
  br label %60

60:                                               ; preds = %59, %58, %49, %38
  call void @llvm.lifetime.end.p0(i64 4, ptr %9) #3
  call void @llvm.lifetime.end.p0(i64 8, ptr %8) #3
  call void @llvm.lifetime.end.p0(i64 1025, ptr %7) #3
  call void @llvm.lifetime.end.p0(i64 4, ptr %6) #3
  br label %63

61:                                               ; preds = %2, %2, %2, %2, %2
  br label %62

62:                                               ; preds = %2, %61
  store i32 1, ptr %3, align 4
  br label %63

63:                                               ; preds = %62, %60
  %64 = load i32, ptr %3, align 4
  ret i32 %64
}