; Function Attrs: nounwind uwtable
define internal range(i32 -2147483648, 2) i32 @ui_read(ptr noundef %0, ptr noundef %1) #0 {
  %3 = alloca [1025 x i8], align 16
  %4 = tail call i32 @UI_get_string_type(ptr noundef %1) #5
  %cond = icmp eq i32 %4, 1
  br i1 %cond, label %5, label %23

5:                                                ; preds = %2
  call void @llvm.lifetime.start.p0(i64 1025, ptr nonnull %3) #5
  %6 = tail call ptr @UI_get_method(ptr noundef %0) #5
  %7 = load i32, ptr @ui_method_data_index, align 4, !tbaa !3
  %8 = tail call ptr @UI_method_get_ex_data(ptr noundef %6, i32 noundef %7) #5
  %9 = tail call i32 @UI_get_result_maxsize(ptr noundef %1) #5
  %spec.store.select = tail call i32 @llvm.smin.i32(i32 %9, i32 1024)
  %10 = load ptr, ptr %8, align 8, !tbaa !10
  %11 = getelementptr inbounds nuw i8, ptr %8, i64 8
  %12 = load i32, ptr %11, align 8, !tbaa !7
  %13 = tail call ptr @UI_get0_user_data(ptr noundef %0) #5
  %14 = call i32 %10(ptr noundef nonnull %3, i32 noundef %spec.store.select, i32 noundef %12, ptr noundef %13) #5
  %15 = icmp sgt i32 %14, %spec.store.select
  br i1 %15, label %.thread, label %16

16:                                               ; preds = %5
  %17 = icmp sgt i32 %14, -1
  br i1 %17, label %18, label %.thread

18:                                               ; preds = %16
  %19 = zext nneg i32 %14 to i64
  %20 = getelementptr inbounds nuw [1025 x i8], ptr %3, i64 0, i64 %19
  store i8 0, ptr %20, align 1, !tbaa !11
  %21 = call i32 @UI_set_result_ex(ptr noundef %0, ptr noundef %1, ptr noundef nonnull %3, i32 noundef %14) #5
  %22 = icmp sgt i32 %21, -1
  %. = zext i1 %22 to i32
  br label %.thread

.thread:                                          ; preds = %16, %18, %5
  %.0 = phi i32 [ -1, %5 ], [ %., %18 ], [ %14, %16 ]
  call void @llvm.lifetime.end.p0(i64 1025, ptr nonnull %3) #5
  br label %23

23:                                               ; preds = %2, %.thread
  %.1 = phi i32 [ %.0, %.thread ], [ 1, %2 ]
  ret i32 %.1
}